; ModuleID = 'source-C-CXX/27/632.c'
source_filename = "source-C-CXX/27/632.c"
target datalayout = "e-m:e-p270:32:32-p271:32:32-p272:64:64-i64:64-f80:128-n8:16:32:64-S128"
target triple = "x86_64-pc-linux-gnu"

@.str = private unnamed_addr constant [4 x i8] c"%d,\00", align 1
@.str.1 = private unnamed_addr constant [4 x i8] c"%d\0A\00", align 1

; Function Attrs: nounwind sspstrong uwtable
define dso_local void @main() local_unnamed_addr #0 {
  %1 = alloca [100000 x i8], align 16
  %2 = getelementptr inbounds [100000 x i8], [100000 x i8]* %1, i64 0, i64 0
  call void @llvm.lifetime.start.p0i8(i64 100000, i8* nonnull %2) #5
  %3 = call i32 (i8*, ...) bitcast (i32 (...)* @gets to i32 (i8*, ...)*)(i8* nonnull %2) #5
  %4 = load i8, i8* %2, align 16
  %5 = icmp eq i8 %4, 0
  br i1 %5, label %36, label %6

6:                                                ; preds = %0, %33
  %7 = phi i8 [ %35, %33 ], [ %4, %0 ]
  %8 = phi i64 [ %29, %33 ], [ 0, %0 ]
  %9 = phi i32 [ %30, %33 ], [ 0, %0 ]
  %10 = icmp eq i8 %7, 32
  br i1 %10, label %11, label %13

11:                                               ; preds = %6
  %12 = add nuw i64 %8, 1
  br label %28

13:                                               ; preds = %6
  %14 = add nsw i32 %9, 1
  %15 = add nuw i64 %8, 1
  %16 = getelementptr inbounds [100000 x i8], [100000 x i8]* %1, i64 0, i64 %15
  %17 = load i8, i8* %16, align 1, !tbaa !5
  %18 = icmp eq i8 %17, 32
  br i1 %18, label %19, label %22

19:                                               ; preds = %13
  %20 = call i32 (i8*, ...) @printf(i8* nonnull dereferenceable(1) getelementptr inbounds ([4 x i8], [4 x i8]* @.str, i64 0, i64 0), i32 %14)
  %21 = load i8, i8* %16, align 1, !tbaa !5
  br label %22

22:                                               ; preds = %19, %13
  %23 = phi i8 [ %21, %19 ], [ %17, %13 ]
  %24 = phi i32 [ 0, %19 ], [ %14, %13 ]
  %25 = icmp eq i8 %23, 0
  br i1 %25, label %26, label %28

26:                                               ; preds = %22
  %27 = call i32 (i8*, ...) @printf(i8* nonnull dereferenceable(1) getelementptr inbounds ([4 x i8], [4 x i8]* @.str.1, i64 0, i64 0), i32 %24)
  br label %28

28:                                               ; preds = %11, %26, %22
  %29 = phi i64 [ %12, %11 ], [ %15, %26 ], [ %15, %22 ]
  %30 = phi i32 [ %9, %11 ], [ %24, %26 ], [ %24, %22 ]
  %31 = call i64 @strlen(i8* noundef nonnull %2) #6
  %32 = icmp ugt i64 %31, %29
  br i1 %32, label %33, label %36, !llvm.loop !8

33:                                               ; preds = %28
  %34 = getelementptr inbounds [100000 x i8], [100000 x i8]* %1, i64 0, i64 %29
  %35 = load i8, i8* %34, align 1, !tbaa !5
  br label %6

36:                                               ; preds = %28, %0
  call void @llvm.lifetime.end.p0i8(i64 100000, i8* nonnull %2) #5
  ret void
}

; Function Attrs: argmemonly mustprogress nofree nosync nounwind willreturn
declare void @llvm.lifetime.start.p0i8(i64 immarg, i8* nocapture) #1

declare i32 @gets(...) local_unnamed_addr #2

; Function Attrs: argmemonly mustprogress nofree nounwind readonly willreturn
declare i64 @strlen(i8* nocapture) local_unnamed_addr #3

; Function Attrs: nofree nounwind
declare noundef i32 @printf(i8* nocapture noundef readonly, ...) local_unnamed_addr #4

; Function Attrs: argmemonly mustprogress nofree nosync nounwind willreturn
declare void @llvm.lifetime.end.p0i8(i64 immarg, i8* nocapture) #1


!llvm.module.flags = !{!0, !1, !2, !3}
!llvm.ident = !{!4}

!0 = !{i32 1, !"wchar_size", i32 4}
!1 = !{i32 7, !"PIC Level", i32 2}
!2 = !{i32 7, !"PIE Level", i32 2}
!3 = !{i32 7, !"uwtable", i32 1}
!4 = !{!"clang version 13.0.0"}
!5 = !{!6, !6, i64 0}
!6 = !{!"omnipotent char", !7, i64 0}
!7 = !{!"Simple C/C++ TBAA"}
!8 = distinct !{!8, !9}
!9 = !{!"llvm.loop.mustprogress"}
